target datalayout = "e-m:e-p270:32:32-p271:32:32-p272:64:64-i64:64-i128:128-f80:128-n8:16:32:64-S128"
target triple = "x86_64-pc-linux-gnu"

%"class.std::vector" = type { %"struct.std::_Vector_base" }
%"struct.std::_Vector_base" = type { %"struct.std::_Vector_base<std::__cxx11::basic_string<char>, std::allocator<std::__cxx11::basic_string<char>>>::_Vector_impl" }
%"struct.std::_Vector_base<std::__cxx11::basic_string<char>, std::allocator<std::__cxx11::basic_string<char>>>::_Vector_impl" = type { %"struct.std::_Vector_base<std::__cxx11::basic_string<char>, std::allocator<std::__cxx11::basic_string<char>>>::_Vector_impl_data" }
%"struct.std::_Vector_base<std::__cxx11::basic_string<char>, std::allocator<std::__cxx11::basic_string<char>>>::_Vector_impl_data" = type { ptr, ptr, ptr }
%"class.std::__cxx11::basic_string" = type { %"struct.std::__cxx11::basic_string<char>::_Alloc_hider", i64, %union.anon }
%"struct.std::__cxx11::basic_string<char>::_Alloc_hider" = type { ptr }
%union.anon = type { i64, [8 x i8] }
%"struct.std::_Rb_tree_header" = type { %"struct.std::_Rb_tree_node_base", i64 }
%"struct.std::_Rb_tree_node_base" = type { i32, ptr, ptr, ptr }
%"class.casadi::Sqpmethod" = type <{ %"class.casadi::Nlpsol", %"struct.casadi::casadi_sqpmethod_prob", %"class.casadi::Function", %"class.casadi::Function", i8, [7 x i8], i64, i64, i64, i64, double, double, double, i8, [7 x i8], double, double, double, i8, [7 x i8], double, double, i64, i64, i8, i8, i8, [5 x i8], %"class.casadi::Sparsity", %"class.casadi::Sparsity", %"struct.casadi::ConvexifyData", i8, i8, [6 x i8] }>
%"class.casadi::Nlpsol" = type { %"class.casadi::OracleFunction", %"class.casadi::PluginInterface", %"struct.casadi::casadi_nlpsol_prob", i64, i64, i64, %"class.casadi::Function", i64, %"class.std::__cxx11::basic_string", %"class.std::map.28", %"class.std::vector.44", %"class.casadi::Function", %"class.std::vector.46", %"class.std::vector.46", i8, i8, i8, i8, i8, i8, i8, i8, i8, double, i8, %"class.std::vector.19", %"class.std::vector.19", i8, %"class.casadi::WeakRef" }
%"class.casadi::OracleFunction" = type { %"class.casadi::FunctionInternal", %"class.casadi::Function", %"class.std::map.28", %"class.std::map.28", i8, i32, %"class.std::map.39", %"class.std::vector", i64, i64, i64, i64 }
%"class.casadi::FunctionInternal" = type { %"class.casadi::ProtoFunction", i8, i8, i64, i64, %"class.std::vector.19", %"class.std::vector.19", %"class.std::vector.23", %"class.std::vector.23", %"class.std::vector", %"class.std::vector", i8, i8, %"class.std::__cxx11::basic_string", %"class.std::__cxx11::basic_string", %"class.std::__cxx11::basic_string", i8, ptr, ptr, ptr, %"class.std::map.28", i8, %"class.std::map.28", %"class.casadi::WeakCache", [2 x %"class.std::vector.23"], %"class.casadi::Function", ptr, %"class.std::__cxx11::basic_string", %"class.casadi::Importer", %"class.std::map.28", double, i8, i8, i8, i8, i8, i8, i8, i8, double, double, i64, i8, %"class.std::map.28", double, %"class.std::__cxx11::basic_string", i8, i8, i64, i8, i8, i8, %"class.std::__cxx11::basic_string", %"class.std::__cxx11::basic_string", %"class.std::map.28", %"class.std::map.28", %"class.std::map.28", %"class.std::map.28", %"class.casadi::Function", i64, i64, i64, i64, i64, i64, i64, i64, i64 }
%"class.casadi::ProtoFunction" = type { %"class.casadi::SharedObjectInternal", %"class.std::__cxx11::basic_string", i8, i8, i8, i8, i8, %"class.std::vector.11", %"class.std::stack" }
%"class.casadi::SharedObjectInternal" = type { %"class.casadi::GenericSharedInternal", i64 }
%"class.casadi::GenericSharedInternal" = type { ptr, ptr }
%"class.std::vector.11" = type { %"struct.std::_Vector_base.12" }
%"struct.std::_Vector_base.12" = type { %"struct.std::_Vector_base<void *, std::allocator<void *>>::_Vector_impl" }
%"struct.std::_Vector_base<void *, std::allocator<void *>>::_Vector_impl" = type { %"struct.std::_Vector_base<void *, std::allocator<void *>>::_Vector_impl_data" }
%"struct.std::_Vector_base<void *, std::allocator<void *>>::_Vector_impl_data" = type { ptr, ptr, ptr }
%"class.std::stack" = type { %"class.std::deque" }
%"class.std::deque" = type { %"class.std::_Deque_base" }
%"class.std::_Deque_base" = type { %"struct.std::_Deque_base<int, std::allocator<int>>::_Deque_impl" }
%"struct.std::_Deque_base<int, std::allocator<int>>::_Deque_impl" = type { %"struct.std::_Deque_base<int, std::allocator<int>>::_Deque_impl_data" }
%"struct.std::_Deque_base<int, std::allocator<int>>::_Deque_impl_data" = type { ptr, i64, %"struct.std::_Deque_iterator", %"struct.std::_Deque_iterator" }
%"struct.std::_Deque_iterator" = type { ptr, ptr, ptr, ptr }
%"class.std::vector.23" = type { %"struct.std::_Vector_base.24" }
%"struct.std::_Vector_base.24" = type { %"struct.std::_Vector_base<casadi::Sparsity, std::allocator<casadi::Sparsity>>::_Vector_impl" }
%"struct.std::_Vector_base<casadi::Sparsity, std::allocator<casadi::Sparsity>>::_Vector_impl" = type { %"struct.std::_Vector_base<casadi::Sparsity, std::allocator<casadi::Sparsity>>::_Vector_impl_data" }
%"struct.std::_Vector_base<casadi::Sparsity, std::allocator<casadi::Sparsity>>::_Vector_impl_data" = type { ptr, ptr, ptr }
%"class.casadi::WeakCache" = type { %"class.std::unordered_map" }
%"class.std::unordered_map" = type { %"class.std::_Hashtable" }
%"class.std::_Hashtable" = type { ptr, i64, %"struct.std::__detail::_Hash_node_base", i64, %"struct.std::__detail::_Prime_rehash_policy", ptr }
%"struct.std::__detail::_Hash_node_base" = type { ptr }
%"struct.std::__detail::_Prime_rehash_policy" = type { float, i64 }
%"class.casadi::Importer" = type { %"class.casadi::SharedObject" }
%"class.casadi::SharedObject" = type { %"class.casadi::GenericShared" }
%"class.casadi::GenericShared" = type { ptr }
%"class.std::map.39" = type { %"class.std::_Rb_tree.40" }
%"class.std::_Rb_tree.40" = type { %"struct.std::_Rb_tree<std::__cxx11::basic_string<char>, std::pair<const std::__cxx11::basic_string<char>, casadi::OracleFunction::RegFun>, std::_Select1st<std::pair<const std::__cxx11::basic_string<char>, casadi::OracleFunction::RegFun>>, std::less<std::__cxx11::basic_string<char>>>::_Rb_tree_impl" }
%"struct.std::_Rb_tree<std::__cxx11::basic_string<char>, std::pair<const std::__cxx11::basic_string<char>, casadi::OracleFunction::RegFun>, std::_Select1st<std::pair<const std::__cxx11::basic_string<char>, casadi::OracleFunction::RegFun>>, std::less<std::__cxx11::basic_string<char>>>::_Rb_tree_impl" = type { [8 x i8], %"struct.std::_Rb_tree_header" }
%"class.casadi::PluginInterface" = type { ptr }
%"struct.casadi::casadi_nlpsol_prob" = type { i64, i64, i64, %"struct.casadi::casadi_nlpsol_detect_bounds_prob" }
%"struct.casadi::casadi_nlpsol_detect_bounds_prob" = type { i64, i64, i64, i64, i64, i64, ptr, ptr, ptr, ptr, ptr }
%"class.std::map.28" = type { %"class.std::_Rb_tree.29" }
%"class.std::_Rb_tree.29" = type { %"struct.std::_Rb_tree<std::__cxx11::basic_string<char>, std::pair<const std::__cxx11::basic_string<char>, casadi::GenericType>, std::_Select1st<std::pair<const std::__cxx11::basic_string<char>, casadi::GenericType>>, std::less<std::__cxx11::basic_string<char>>>::_Rb_tree_impl" }
%"struct.std::_Rb_tree<std::__cxx11::basic_string<char>, std::pair<const std::__cxx11::basic_string<char>, casadi::GenericType>, std::_Select1st<std::pair<const std::__cxx11::basic_string<char>, casadi::GenericType>>, std::less<std::__cxx11::basic_string<char>>>::_Rb_tree_impl" = type { [8 x i8], %"struct.std::_Rb_tree_header" }
%"class.std::vector.44" = type { %"struct.std::_Vector_base.45" }
%"struct.std::_Vector_base.45" = type { %"struct.std::_Vector_base<char, std::allocator<char>>::_Vector_impl" }
%"struct.std::_Vector_base<char, std::allocator<char>>::_Vector_impl" = type { %"struct.std::_Vector_base<char, std::allocator<char>>::_Vector_impl_data" }
%"struct.std::_Vector_base<char, std::allocator<char>>::_Vector_impl_data" = type { ptr, ptr, ptr }
%"class.std::vector.46" = type { %"struct.std::_Vector_base.47" }
%"struct.std::_Vector_base.47" = type { %"struct.std::_Vector_base<long long, std::allocator<long long>>::_Vector_impl" }
%"struct.std::_Vector_base<long long, std::allocator<long long>>::_Vector_impl" = type { %"struct.std::_Vector_base<long long, std::allocator<long long>>::_Vector_impl_data" }
%"struct.std::_Vector_base<long long, std::allocator<long long>>::_Vector_impl_data" = type { ptr, ptr, ptr }
%"class.std::vector.19" = type { %"struct.std::_Bvector_base" }
%"struct.std::_Bvector_base" = type { %"struct.std::_Bvector_base<std::allocator<bool>>::_Bvector_impl" }
%"struct.std::_Bvector_base<std::allocator<bool>>::_Bvector_impl" = type { %"struct.std::_Bvector_base<std::allocator<bool>>::_Bvector_impl_data" }
%"struct.std::_Bvector_base<std::allocator<bool>>::_Bvector_impl_data" = type { %"struct.std::_Bit_iterator", %"struct.std::_Bit_iterator", ptr }
%"struct.std::_Bit_iterator" = type { %"struct.std::_Bit_iterator_base.base", [4 x i8] }
%"struct.std::_Bit_iterator_base.base" = type <{ ptr, i32 }>
%"class.casadi::WeakRef" = type { %"class.casadi::GenericWeakRef" }
%"class.casadi::GenericWeakRef" = type { %"class.casadi::GenericShared" }
%"struct.casadi::casadi_sqpmethod_prob" = type { ptr, ptr, ptr, ptr, i64, i64 }
%"class.casadi::Function" = type { %"class.casadi::SharedObject" }
%"class.casadi::Sparsity" = type { %"class.casadi::SharedObject" }
%"struct.casadi::ConvexifyData" = type { %"class.std::vector.46", %"class.std::vector.46", %"class.casadi::Sparsity", %"class.casadi::Sparsity", %"class.casadi::Sparsity", %"struct.casadi::casadi_convexify_config", i64, i64, ptr, ptr }
%"struct.casadi::casadi_convexify_config" = type { i32, i32, ptr, ptr, double, i32, i32, ptr, ptr, i64, i64, i32 }

; Function Attrs: mustprogress uwtable
define void @_ZN6casadi9Sqpmethod18set_sqpmethod_probEv(ptr noundef nonnull align 8 dereferenceable(2386) %0) #6 align 2 {
  %2 = alloca ptr, align 8
  store ptr %0, ptr %2, align 8, !tbaa !46
  %3 = load ptr, ptr %2, align 8
  %4 = getelementptr inbounds nuw %"class.casadi::Sqpmethod", ptr %3, i32 0, i32 28
  %5 = call noundef ptr @_ZNK6casadi8SparsitycvPKxEv(ptr noundef nonnull align 8 dereferenceable(8) %4)
  %6 = getelementptr inbounds nuw %"class.casadi::Sqpmethod", ptr %3, i32 0, i32 1
  %7 = getelementptr inbounds nuw %"struct.casadi::casadi_sqpmethod_prob", ptr %6, i32 0, i32 1
  store ptr %5, ptr %7, align 8, !tbaa !248
  %8 = getelementptr inbounds nuw %"class.casadi::Sqpmethod", ptr %3, i32 0, i32 29
  %9 = call noundef ptr @_ZNK6casadi8SparsitycvPKxEv(ptr noundef nonnull align 8 dereferenceable(8) %8)
  %10 = getelementptr inbounds nuw %"class.casadi::Sqpmethod", ptr %3, i32 0, i32 1
  %11 = getelementptr inbounds nuw %"struct.casadi::casadi_sqpmethod_prob", ptr %10, i32 0, i32 2
  store ptr %9, ptr %11, align 8, !tbaa !249
  %12 = getelementptr inbounds nuw %"class.casadi::Sqpmethod", ptr %3, i32 0, i32 23
  %13 = load i64, ptr %12, align 8, !tbaa !178
  %14 = getelementptr inbounds nuw %"class.casadi::Sqpmethod", ptr %3, i32 0, i32 1
  %15 = getelementptr inbounds nuw %"struct.casadi::casadi_sqpmethod_prob", ptr %14, i32 0, i32 4
  store i64 %13, ptr %15, align 8, !tbaa !250
  %16 = getelementptr inbounds nuw %"class.casadi::Sqpmethod", ptr %3, i32 0, i32 22
  %17 = load i64, ptr %16, align 8, !tbaa !175
  %18 = getelementptr inbounds nuw %"class.casadi::Sqpmethod", ptr %3, i32 0, i32 1
  %19 = getelementptr inbounds nuw %"struct.casadi::casadi_sqpmethod_prob", ptr %18, i32 0, i32 5
  store i64 %17, ptr %19, align 8, !tbaa !251
  %20 = getelementptr inbounds nuw %"class.casadi::Nlpsol", ptr %3, i32 0, i32 2
  %21 = getelementptr inbounds nuw %"class.casadi::Sqpmethod", ptr %3, i32 0, i32 1
  %22 = getelementptr inbounds nuw %"struct.casadi::casadi_sqpmethod_prob", ptr %21, i32 0, i32 0
  store ptr %20, ptr %22, align 8, !tbaa !252
  ret void
}