; Function Attrs: mustprogress uwtable
define void @_ZN6casadi9Sqpmethod18set_sqpmethod_probEv(ptr noundef nonnull align 8 dereferenceable(2386) %0) local_unnamed_addr #4 align 2 {
  %2 = getelementptr inbounds nuw i8, ptr %0, i64 2184
  %3 = tail call noundef ptr @_ZNK6casadi8SparsitycvPKxEv(ptr noundef nonnull align 8 dereferenceable(8) %2)
  %4 = getelementptr inbounds nuw i8, ptr %0, i64 1976
  %5 = getelementptr inbounds nuw i8, ptr %0, i64 1984
  store ptr %3, ptr %5, align 8, !tbaa !199
  %6 = getelementptr inbounds nuw i8, ptr %0, i64 2192
  %7 = tail call noundef ptr @_ZNK6casadi8SparsitycvPKxEv(ptr noundef nonnull align 8 dereferenceable(8) %6)
  %8 = getelementptr inbounds nuw i8, ptr %0, i64 1992
  store ptr %7, ptr %8, align 8, !tbaa !200
  %9 = getelementptr inbounds nuw i8, ptr %0, i64 2168
  %10 = load i64, ptr %9, align 8, !tbaa !143
  %11 = getelementptr inbounds nuw i8, ptr %0, i64 2008
  store i64 %10, ptr %11, align 8, !tbaa !201
  %12 = getelementptr inbounds nuw i8, ptr %0, i64 2160
  %13 = load i64, ptr %12, align 8, !tbaa !140
  %14 = getelementptr inbounds nuw i8, ptr %0, i64 2016
  store i64 %13, ptr %14, align 8, !tbaa !202
  %15 = getelementptr inbounds nuw i8, ptr %0, i64 1536
  store ptr %15, ptr %4, align 8, !tbaa !203
  ret void
}